; Function Attrs: mustprogress nofree norecurse nosync nounwind willreturn memory(none) uwtable
define noundef signext range(i8 0, 2) i8 @_ZN6icu_7714HebrewCalendar10isLeapYearEi(i32 noundef %0) local_unnamed_addr #4 align 2 {
  %2 = sext i32 %0 to i64
  %3 = mul nsw i64 %2, 12
  %4 = add nsw i64 %3, 17
  %5 = srem i64 %4, 19
  %6 = icmp slt i64 %5, 0
  %7 = select i1 %6, i64 -7, i64 12
  %8 = icmp sge i64 %5, %7
  %9 = zext i1 %8 to i8
  ret i8 %9
}